; Function Attrs: nounwind uwtable
define dso_local zeroext i1 @is_pseudo_constant_for_index(ptr noundef %0, ptr noundef %1, ptr noundef readonly captures(none) %2) local_unnamed_addr #0 {
  %4 = getelementptr inbounds nuw i8, ptr %2, i64 16
  %5 = load ptr, ptr %4, align 8
  %6 = getelementptr inbounds nuw i8, ptr %5, i64 112
  %7 = load i32, ptr %6, align 8
  %8 = tail call ptr @pull_varnos(ptr noundef %0, ptr noundef %1) #8
  %9 = tail call zeroext i1 @bms_is_member(i32 noundef %7, ptr noundef %8) #8
  br i1 %9, label %12, label %10

10:                                               ; preds = %3
  %11 = tail call zeroext i1 @contain_volatile_functions(ptr noundef %1) #8
  %not. = xor i1 %11, true
  br label %12

12:                                               ; preds = %10, %3
  %.0 = phi i1 [ false, %3 ], [ %not., %10 ]
  ret i1 %.0
}